; ModuleID = '43/1756.c'
source_filename = "43/1756.c"
target datalayout = "e-m:e-p270:32:32-p271:32:32-p272:64:64-i64:64-f80:128-n8:16:32:64-S128"
target triple = "x86_64-pc-linux-gnu"

@.str = private unnamed_addr constant [3 x i8] c"%d\00", align 1
@.str.1 = private unnamed_addr constant [7 x i8] c"%d %d\0A\00", align 1

; Function Attrs: noinline nounwind uwtable
define dso_local i32 @main() #0 {
  %1 = alloca i32, align 4
  %2 = alloca i32, align 4
  %3 = alloca i32, align 4
  %4 = alloca i32, align 4
  %5 = alloca i32, align 4
  %6 = alloca i32, align 4
  %7 = alloca i32, align 4
  %8 = alloca i32, align 4
  %9 = alloca i32, align 4
  store i32 0, i32* %1, align 4
  %10 = call i32 (i8*, ...) @__isoc99_scanf(i8* getelementptr inbounds ([3 x i8], [3 x i8]* @.str, i64 0, i64 0), i32* %2)
  store i32 3, i32* %3, align 4
  br label %11

11:                                               ; preds = %71, %0
  %12 = load i32, i32* %3, align 4
  %13 = load i32, i32* %2, align 4
  %14 = sdiv i32 %13, 2
  %15 = icmp sle i32 %12, %14
  br i1 %15, label %16, label %74

16:                                               ; preds = %11
  %17 = load i32, i32* %3, align 4
  %18 = sitofp i32 %17 to double
  %19 = call double @sqrt(double %18) #3
  %20 = fptosi double %19 to i32
  store i32 %20, i32* %5, align 4
  store i32 1, i32* %6, align 4
  store i32 2, i32* %4, align 4
  br label %21

21:                                               ; preds = %33, %16
  %22 = load i32, i32* %4, align 4
  %23 = load i32, i32* %5, align 4
  %24 = icmp sle i32 %22, %23
  br i1 %24, label %25, label %36

25:                                               ; preds = %21
  %26 = load i32, i32* %3, align 4
  %27 = load i32, i32* %4, align 4
  %28 = srem i32 %26, %27
  %29 = icmp eq i32 %28, 0
  br i1 %29, label %30, label %32

30:                                               ; preds = %25
  %31 = load i32, i32* %4, align 4
  store i32 %31, i32* %6, align 4
  br label %32

32:                                               ; preds = %30, %25
  br label %33

33:                                               ; preds = %32
  %34 = load i32, i32* %4, align 4
  %35 = add nsw i32 %34, 1
  store i32 %35, i32* %4, align 4
  br label %21

36:                                               ; preds = %21
  %37 = load i32, i32* %6, align 4
  %38 = icmp eq i32 %37, 1
  br i1 %38, label %39, label %70

39:                                               ; preds = %36
  %40 = load i32, i32* %2, align 4
  %41 = load i32, i32* %3, align 4
  %42 = sub nsw i32 %40, %41
  store i32 %42, i32* %7, align 4
  %43 = load i32, i32* %7, align 4
  %44 = sitofp i32 %43 to double
  %45 = call double @sqrt(double %44) #3
  %46 = fptosi double %45 to i32
  store i32 %46, i32* %8, align 4
  store i32 1, i32* %9, align 4
  store i32 2, i32* %4, align 4
  br label %47

47:                                               ; preds = %59, %39
  %48 = load i32, i32* %4, align 4
  %49 = load i32, i32* %8, align 4
  %50 = icmp sle i32 %48, %49
  br i1 %50, label %51, label %62

51:                                               ; preds = %47
  %52 = load i32, i32* %7, align 4
  %53 = load i32, i32* %4, align 4
  %54 = srem i32 %52, %53
  %55 = icmp eq i32 %54, 0
  br i1 %55, label %56, label %58

56:                                               ; preds = %51
  %57 = load i32, i32* %4, align 4
  store i32 %57, i32* %9, align 4
  br label %58

58:                                               ; preds = %56, %51
  br label %59

59:                                               ; preds = %58
  %60 = load i32, i32* %4, align 4
  %61 = add nsw i32 %60, 1
  store i32 %61, i32* %4, align 4
  br label %47

62:                                               ; preds = %47
  %63 = load i32, i32* %9, align 4
  %64 = icmp eq i32 %63, 1
  br i1 %64, label %65, label %69

65:                                               ; preds = %62
  %66 = load i32, i32* %3, align 4
  %67 = load i32, i32* %7, align 4
  %68 = call i32 (i8*, ...) @printf(i8* getelementptr inbounds ([7 x i8], [7 x i8]* @.str.1, i64 0, i64 0), i32 %66, i32 %67)
  br label %69

69:                                               ; preds = %65, %62
  br label %70

70:                                               ; preds = %69, %36
  br label %71

71:                                               ; preds = %70
  %72 = load i32, i32* %3, align 4
  %73 = add nsw i32 %72, 2
  store i32 %73, i32* %3, align 4
  br label %11

74:                                               ; preds = %11
  %75 = load i32, i32* %1, align 4
  ret i32 %75
}

declare dso_local i32 @__isoc99_scanf(i8*, ...) #1

; Function Attrs: nounwind
declare dso_local double @sqrt(double) #2

declare dso_local i32 @printf(i8*, ...) #1


!llvm.module.flags = !{!0}
!llvm.ident = !{!1}

!0 = !{i32 1, !"wchar_size", i32 4}
!1 = !{!"clang version 10.0.0-4ubuntu1 "}
